(dp0
S'top_unigrams'
p1
(lp2
S'photoshop'
p3
aS'coach'
p4
aS'profici'
p5
aS'execut'
p6
aS'illustr'
p7
aS'-'
p8
aS'wordperfect'
p9
aS'salesforc'
p10
aS'tcp'
p11
aS'medisoft'
p12
aS'code'
p13
aS'lotu'
p14
aS'human'
p15
aS'mysql'
p16
aS'skill'
p17
aS'peoplesoft'
p18
aS'sharepoint'
p19
aS'languag'
p20
aS'staff'
p21
aS'perfect'
p22
aS'web'
p23
aS'surfac'
p24
aS'cut'
p25
aS'autocad'
p26
aS'pcr'
p27
aS'dreamweav'
p28
aS'window'
p29
aS'flash'
p30
aS'solut'
p31
aS'platform'
p32
aS'offic'
p33
aS'busi'
p34
aS'matlab'
p35
aS'foundat'
p36
aS'cpr'
p37
aS'analyt'
p38
aS'2011'
p39
aS'2010'
p40
aS'applic'
p41
aS'fax'
p42
aS'good'
p43
aS'qualiti'
p44
aS'express'
p45
aS'strateg'
p46
aS'nation'
p47
aS'framework'
p48
aS'graphic'
p49
aS'ssi'
p50
aS'report'
p51
aS'cs3'
p52
aS'ibm'
p53
aS'school'
p54
aS'&#183;'
p55
aS'administr'
p56
aS'edit'
p57
aS'corpor'
p58
aS'.net'
p59
aS'html'
p60
aS'c++'
p61
aS'server'
p62
aS'omnitur'
p63
aS'team'
p64
aS'quick'
p65
aS'\xc2\xb7'
p66
aS'manag'
p67
aS'familiar'
p68
aS'crm'
p69
aS'enterpris'
p70
aS'bill'
p71
aS'art'
p72
aS'abil'
p73
aS'twitter'
p74
aS'knowledg'
p75
aS'sap'
p76
aS'draw'
p77
aS'procedur'
p78
aS'intern'
p79
aS'design'
p80
aS'year'
p81
aS'sem'
p82
aS'&#173;'
p83
aS'expertis'
p84
aS'jqueri'
p85
aS'statu'
p86
aS'network'
p87
aS'crystal'
p88
aS'databas'
p89
aS'netwar'
p90
aS'/'
p91
aS'research'
p92
aS'access'
p93
aS'state'
p94
aS'firework'
p95
aS'internet'
p96
aS'uml'
p97
aS'experi'
p98
aS'public'
p99
aS'xml'
p100
aS'power'
p101
aS'xslt'
p102
aS'gener'
p103
aS'javascript'
p104
aS'quark'
p105
aS'ajax'
p106
aS'leadership'
p107
aS'colleg'
p108
aS'minitab'
p109
aS'key'
p110
aS'java'
p111
aS'&amp;'
p112
aS'strong'
p113
aS'eclips'
p114
aS'organ'
p115
aS'addit'
p116
aS'social'
p117
aS'c'
p118
aS'skills.'
p119
aS'materi'
p120
aS'script'
p121
aS'technolog'
p122
aS'advanc'
p123
aS'|'
p124
aS'act'
p125
aS'studio'
p126
aS'implement'
p127
aS'summari'
p128
aS'os'
p129
aS'powerpoint'
p130
aS'macintosh'
p131
aS'oper'
p132
aS'softwar'
p133
aS'acrobat'
p134
aS'*'
p135
aS'depart'
p136
aS'point'
p137
aS'apach'
p138
aS'ca'
p139
aS'profession'
p140
aS'terminolog'
p141
aS'creativ'
p142
aS'unix'
p143
aS'linux'
p144
aS'xp'
p145
aS'perl'
p146
aS'market'
p147
aS'highli'
p148
aS'php'
p149
aS'dna'
p150
aS'commun'
p151
aS'support'
p152
aS'univers'
p153
aS'system'
p154
aS'custom'
p155
aS'elisa'
p156
aS'pc'
p157
aS'program'
p158
aS'wordpress'
p159
aS'includ'
p160
aS'macromedia'
p161
aS'basic'
p162
aS'certifi'
p163
aS'type'
p164
aS'final'
p165
aS'store'
p166
aS'strategi'
p167
aS'analysi'
p168
aS'premier'
p169
aS'relay'
p170
aS'adob'
p171
aS'tool'
p172
aS'relat'
p173
aS'visual'
p174
aS'train'
p175
aS'visio'
p176
aS'adword'
p177
aS'compani'
p178
aS'educ'
p179
aS'technic'
p180
aS'case'
p181
aS'ant'
p182
aS'account'
p183
aS'novel'
p184
aS'word'
p185
aS'aix'
p186
aS'provid'
p187
aS'servic'
p188
aS'work'
p189
aS'budget'
p190
aS'project'
p191
aS'record'
p192
aS'bridg'
p193
aS'pl'
p194
aS'ms'
p195
aS'seri'
p196
aS'control'
p197
aS'vb'
p198
aS'xpress'
p199
aS'comput'
p200
aS'file'
p201
aS'creat'
p202
aS'do'
p203
aS'process'
p204
aS'ip'
p205
aS'pro'
p206
aS'respons'
p207
aS'ii'
p208
aS'high'
p209
aS'frontpag'
p210
aS'explor'
p211
aS'requisit'
p212
aS'spss'
p213
aS'management,'
p214
aS'facebook'
p215
aS'sa'
p216
aS'vista'
p217
aS'quickbook'
p218
aS'develop'
p219
aS'inventori'
p220
aS'perform'
p221
aS'media'
p222
aS'medic'
p223
aS'excel'
p224
aS'cad'
p225
aS'event'
p226
aS'write'
p227
aS'xrd'
p228
aS'maintain'
p229
aS'financi'
p230
aS'test'
p231
aS'outlook'
p232
aS'nt'
p233
aS'brand'
p234
aS'css'
p235
aS'product'
p236
aS'cs4'
p237
aS'insur'
p238
aS'toad'
p239
aS'assist'
p240
aS'oracl'
p241
aS'effect'
p242
aS'dell'
p243
aS'wpm'
p244
aS'mac'
p245
aS'plan'
p246
aS'sql'
p247
aS'dart'
p248
aS'data'
p249
aS'senior'
p250
aS'indesign'
p251
aS'googl'
p252
aS'ide'
p253
aS'center'
p254
aS'corel'
p255
aS'i'
p256
aS'entri'
p257
aS'suit'
p258
aS'sale'
p259
aS'assign'
p260
aS'inform'
p261
aS'weblog'
p262
aS'client'
p263
aS'2007'
p264
aS'time'
p265
aS'cs5'
p266
aS'cogno'
p267
aS'2008'
p268
aS'2009'
p269
aS'microsoft'
p270
aS'daili'
p271
aS'publish'
p272
asS'top_bigrams'
p273
(lp274
(S'customer'
p275
S'service'
p276
tp277
a(S'project'
p278
S'management'
p279
tp280
a(S'microsoft'
p281
S'office'
p282
tp283
a(S'professional'
p284
S'experience'
p285
tp286
a(S'business'
p287
S'development'
p288
tp289
a(S'human'
p290
S'resources'
p291
tp292
a(S'client'
p293
S'clients'
p294
tp295
a(S'high'
p296
S'school'
p297
tp298
a(S'sales'
p299
S'sales'
p300
tp301
a(S'data'
p302
S'entry'
p303
tp304
a(S'customer'
p305
S'satisfaction'
p306
tp307
a(S'public'
p308
S'relations'
p309
tp310
a(S'york,'
p311
S'ny'
p312
tp313
a(S'strategic'
p314
S'planning'
p315
tp316
a(S'real'
p317
S'estate'
p318
tp319
a(S'ms'
p320
S'office'
p321
tp322
a(S'supply'
p323
S'chain'
p324
tp325
a(S'product'
p326
S'development'
p327
tp328
a(S'sql'
p329
S'server'
p330
tp331
a(S'call'
p332
S'center'
p333
tp334
a(S'quality'
p335
S'assurance'
p336
tp337
a(S'business'
p338
S'administration'
p339
tp340
a(S'work'
p341
S'experience'
p342
tp343
a(S'communication'
p344
S'skills'
p345
tp346
a(S'microsoft'
p347
S'word'
p348
tp349
a(S'clients'
p350
S'customer'
p351
tp352
a(S'technical'
p353
S'support'
p354
tp355
a(S'senior'
p356
S'management'
p357
tp358
a(S'problem'
p359
S'solving'
p360
tp361
a(S'state'
p362
S'university'
p363
tp364
a(S'2008'
p365
g8
tp366
a(S'information'
p367
S'technology'
p368
tp369
a(S'marketing'
p370
S'market'
p371
tp372
a(S'office'
p373
S'suite'
p374
tp375
a(S'word,'
p376
S'excel,'
p377
tp378
a(S'2010'
p379
g8
tp380
a(S'administrative'
p381
S'support'
p382
tp383
a(S'human'
p384
S'resource'
p385
tp386
a(S'market'
p387
S'research'
p388
tp389
a(S'business'
p390
S'process'
p391
tp392
a(S'quality'
p393
S'control'
p394
tp395
a(S'state'
p396
S'university,'
p397
tp398
a(S'social'
p399
S'media'
p400
tp401
a(S'.'
p402
g402
tp403
a(S'financial'
p404
S'financial'
p405
tp406
a(S'project'
p407
S'manager'
p408
tp409
a(S'2007'
p410
g8
tp411
a(S'2009'
p412
g8
tp413
a(S'risk'
p414
S'management'
p415
tp416
a(S'accounts'
p417
S'payable'
p418
tp419
a(S'marketing'
p420
S'marketing'
p421
tp422
a(S'2006'
p423
g8
tp424
a(S'information'
p425
S'systems'
p426
tp427
a(S'microsoft'
p428
S'word,'
p429
tp430
a(S'excellent'
p431
S'customer'
p432
tp433
a(S'power'
p434
S'point'
p435
tp436
a(S'software'
p437
S'development'
p438
tp439
a(S'marketing'
p440
S'materials'
p441
tp442
a(S'2005'
p443
g8
tp444
a(S'customer'
p445
S'service,'
p446
tp447
a(S'office'
p448
S'office'
p449
tp450
a(S'strategy'
p451
S'strategic'
p452
tp453
a(g391
S'improvement'
p454
tp455
a(S'operating'
p456
S'systems'
p457
tp458
a(S'managing'
p459
S'marketing'
p460
tp461
a(S'service'
p462
S'customer'
p463
tp464
a(S'management'
p465
S'project'
p466
tp467
a(S'lotus'
p468
S'notes'
p469
tp470
a(S'accounts'
p471
S'receivable'
p472
tp473
a(S'excel'
p474
S'microsoft'
p475
tp476
a(S'page'
p477
S'2'
p478
tp479
a(S'vice'
p480
S'president'
p481
tp482
a(S'2004'
p483
g8
tp484
a(S'budget'
p485
S'business'
p486
tp487
a(S'computer'
p488
S'skills'
p489
tp490
a(S'adobe'
p491
S'photoshop'
p492
tp493
a(S'manager'
p494
g8
tp495
a(S'account'
p496
S'management'
p497
tp498
a(S'community'
p499
S'college'
p500
tp501
a(S'access'
p502
S'excel'
p503
tp504
a(g371
g420
tp505
a(S'change'
p506
S'management'
p507
tp508
a(S'retail'
p509
S'sales'
p510
tp511
a(g452
S'strategic'
p512
tp513
a(S'2003'
p514
g8
tp515
a(S'microsoft'
p516
S'excel'
p517
tp518
a(S'team'
p519
S'player'
p520
tp521
a(S'performance'
p522
S'management'
p523
tp524
a(S'graphic'
p525
S'design'
p526
tp527
a(S'quality'
p528
S'quality'
p529
tp530
a(S'united'
p531
S'states'
p532
tp533
a(S'2000'
p534
g8
tp535
a(S'inventory'
p536
S'control'
p537
tp538
a(S'outlook'
p539
S'powerpoint'
p540
tp541
a(S'office'
p542
g539
tp543
a(g8
S'june'
p544
tp545
a(S'extensive'
p546
S'experience'
p547
tp548
a(S'business'
p549
S'management'
p550
tp551
a(g8
S'december'
p552
tp553
a(S'special'
p554
S'events'
p555
tp556
as.