ccopy_reg
_reconstructor
p0
(csklearn.pipeline
FeatureUnion
p1
c__builtin__
object
p2
Ntp3
Rp4
(dp5
S'transformer_weights'
p6
NsS'n_jobs'
p7
I1
sS'transformer_list'
p8
(lp9
(S'uni'
p10
g0
(csklearn.feature_extraction.text
HashingVectorizer
p11
g2
Ntp12
Rp13
(dp14
S'decode_error'
p15
Vstrict
p16
sS'lowercase'
p17
I01
sS'stop_words'
p18
S'english'
p19
sS'tokenizer'
p20
NsS'encoding'
p21
Vutf-8
p22
sS'token_pattern'
p23
V(?u)\u005cb\u005cw\u005cw+\u005cb
p24
sS'analyzer'
p25
Vword
p26
sS'binary'
p27
I00
sS'ngram_range'
p28
(I1
I1
tp29
sS'preprocessor'
p30
NsS'dtype'
p31
cnumpy
float64
p32
sS'input'
p33
Vcontent
p34
sS'n_features'
p35
I4000
sS'non_negative'
p36
I00
sS'norm'
p37
Vl2
p38
sS'strip_accents'
p39
Nsbtp40
a(S'bi'
p41
g0
(g11
g2
Ntp42
Rp43
(dp44
g15
g16
sg17
I01
sg18
g19
sg20
Nsg21
g22
sg23
V(?u)\u005cb\u005cw\u005cw+\u005cb
p45
sg25
g26
sg27
I00
sg28
(I2
I2
tp46
sg30
Nsg31
g32
sg33
g34
sg35
I3000
sg36
I00
sg37
g38
sg39
Nsbtp47
asb.