(lp0
cnumpy.core.multiarray
scalar
p1
(cnumpy
dtype
p2
(S'S17'
p3
I0
I1
tp4
Rp5
(I3
S'|'
p6
NNNI17
I1
I0
tp7
bS'account executive'
p8
tp9
Rp10
ag1
(g2
(S'S10'
p11
I0
I1
tp12
Rp13
(I3
S'|'
p14
NNNI10
I1
I0
tp15
bS'accountant'
p16
tp17
Rp18
ag1
(g2
(S'S20'
p19
I0
I1
tp20
Rp21
(I3
S'|'
p22
NNNI20
I1
I0
tp23
bS'accounting assistant'
p24
tp25
Rp26
ag1
(g2
(S'S18'
p27
I0
I1
tp28
Rp29
(I3
S'|'
p30
NNNI18
I1
I0
tp31
bS'accounting manager'
p32
tp33
Rp34
ag1
(g2
(S'S24'
p35
I0
I1
tp36
Rp37
(I3
S'|'
p38
NNNI24
I1
I0
tp39
bS'administrative assistant'
p40
tp41
Rp42
ag1
(g2
(S'S18'
p43
I0
I1
tp44
Rp45
(I3
S'|'
p46
NNNI18
I1
I0
tp47
bS'assistant director'
p48
tp49
Rp50
ag1
(g2
(S'S17'
p51
I0
I1
tp52
Rp53
(I3
S'|'
p54
NNNI17
I1
I0
tp55
bS'assistant manager'
p56
tp57
Rp58
ag1
(g2
(S'S24'
p59
I0
I1
tp60
Rp61
(I3
S'|'
p62
NNNI24
I1
I0
tp63
bS'assistant vice president'
p64
tp65
Rp66
ag1
(g2
(S'S18'
p67
I0
I1
tp68
Rp69
(I3
S'|'
p70
NNNI18
I1
I0
tp71
bS'associate director'
p72
tp73
Rp74
ag1
(g2
(S'S8'
p75
I0
I1
tp76
Rp77
(I3
S'|'
p78
NNNI8
I1
I0
tp79
bS'attorney'
p80
tp81
Rp82
ag1
(g2
(S'S16'
p83
I0
I1
tp84
Rp85
(I3
S'|'
p86
NNNI16
I1
I0
tp87
bS'business analyst'
p88
tp89
Rp90
ag1
(g2
(S'S19'
p91
I0
I1
tp92
Rp93
(I3
S'|'
p94
NNNI19
I1
I0
tp95
bS'business consultant'
p96
tp97
Rp98
ag1
(g2
(S'S29'
p99
I0
I1
tp100
Rp101
(I3
S'|'
p102
NNNI29
I1
I0
tp103
bS'business development director'
p104
tp105
Rp106
ag1
(g2
(S'S28'
p107
I0
I1
tp108
Rp109
(I3
S'|'
p110
NNNI28
I1
I0
tp111
bS'business development manager'
p112
tp113
Rp114
ag1
(g2
(S'S23'
p115
I0
I1
tp116
Rp117
(I3
S'|'
p118
NNNI23
I1
I0
tp119
bS'chief executive officer'
p120
tp121
Rp122
ag1
(g2
(S'S23'
p123
I0
I1
tp124
Rp125
(I3
S'|'
p126
NNNI23
I1
I0
tp127
bS'chief financial officer'
p128
tp129
Rp130
ag1
(g2
(S'S25'
p131
I0
I1
tp132
Rp133
(I3
S'|'
p134
NNNI25
I1
I0
tp135
bS'chief information officer'
p136
tp137
Rp138
ag1
(g2
(S'S23'
p139
I0
I1
tp140
Rp141
(I3
S'|'
p142
NNNI23
I1
I0
tp143
bS'chief operating officer'
p144
tp145
Rp146
ag1
(g2
(S'S19'
p147
I0
I1
tp148
Rp149
(I3
S'|'
p150
NNNI19
I1
I0
tp151
bS'computer technician'
p152
tp153
Rp154
ag1
(g2
(S'S10'
p155
I0
I1
tp156
Rp157
(I3
S'|'
p158
NNNI10
I1
I0
tp159
bS'consultant'
p160
tp161
Rp162
ag1
(g2
(S'S26'
p163
I0
I1
tp164
Rp165
(I3
S'|'
p166
NNNI26
I1
I0
tp167
bS'customer service associate'
p168
tp169
Rp170
ag1
(g2
(S'S24'
p171
I0
I1
tp172
Rp173
(I3
S'|'
p174
NNNI24
I1
I0
tp175
bS'customer service manager'
p176
tp177
Rp178
ag1
(g2
(S'S31'
p179
I0
I1
tp180
Rp181
(I3
S'|'
p182
NNNI31
I1
I0
tp183
bS'customer service representative'
p184
tp185
Rp186
ag1
(g2
(S'S12'
p187
I0
I1
tp188
Rp189
(I3
S'|'
p190
NNNI12
I1
I0
tp191
bS'data analyst'
p192
tp193
Rp194
ag1
(g2
(S'S15'
p195
I0
I1
tp196
Rp197
(I3
S'|'
p198
NNNI15
I1
I0
tp199
bS'data researcher'
p200
tp201
Rp202
ag1
(g2
(S'S14'
p203
I0
I1
tp204
Rp205
(I3
S'|'
p206
NNNI14
I1
I0
tp207
bS'data scientist'
p208
tp209
Rp210
ag1
(g2
(S'S8'
p211
I0
I1
tp212
Rp213
(I3
S'|'
p214
NNNI8
I1
I0
tp215
bS'designer'
p216
tp217
Rp218
ag1
(g2
(S'S9'
p219
I0
I1
tp220
Rp221
(I3
S'|'
p222
NNNI9
I1
I0
tp223
bS'developer'
p224
tp225
Rp226
ag1
(g2
(S'S34'
p227
I0
I1
tp228
Rp229
(I3
S'|'
p230
NNNI34
I1
I0
tp231
bS'executive administrative assistant'
p232
tp233
Rp234
ag1
(g2
(S'S19'
p235
I0
I1
tp236
Rp237
(I3
S'|'
p238
NNNI19
I1
I0
tp239
bS'executive assistant'
p240
tp241
Rp242
ag1
(g2
(S'S18'
p243
I0
I1
tp244
Rp245
(I3
S'|'
p246
NNNI18
I1
I0
tp247
bS'executive director'
p248
tp249
Rp250
ag1
(g2
(S'S17'
p251
I0
I1
tp252
Rp253
(I3
S'|'
p254
NNNI17
I1
I0
tp255
bS'financial analyst'
p256
tp257
Rp258
ag1
(g2
(S'S15'
p259
I0
I1
tp260
Rp261
(I3
S'|'
p262
NNNI15
I1
I0
tp263
bS'general manager'
p264
tp265
Rp266
ag1
(g2
(S'S16'
p267
I0
I1
tp268
Rp269
(I3
S'|'
p270
NNNI16
I1
I0
tp271
bS'graphic designer'
p272
tp273
Rp274
ag1
(g2
(S'S25'
p275
I0
I1
tp276
Rp277
(I3
S'|'
p278
NNNI25
I1
I0
tp279
bS'human resources assistant'
p280
tp281
Rp282
ag1
(g2
(S'S27'
p283
I0
I1
tp284
Rp285
(I3
S'|'
p286
NNNI27
I1
I0
tp287
bS'human resources coordinator'
p288
tp289
Rp290
ag1
(g2
(S'S24'
p291
I0
I1
tp292
Rp293
(I3
S'|'
p294
NNNI24
I1
I0
tp295
bS'human resources director'
p296
tp297
Rp298
ag1
(g2
(S'S26'
p299
I0
I1
tp300
Rp301
(I3
S'|'
p302
NNNI26
I1
I0
tp303
bS'human resources generalist'
p304
tp305
Rp306
ag1
(g2
(S'S23'
p307
I0
I1
tp308
Rp309
(I3
S'|'
p310
NNNI23
I1
I0
tp311
bS'human resources manager'
p312
tp313
Rp314
ag1
(g2
(S'S33'
p315
I0
I1
tp316
Rp317
(I3
S'|'
p318
NNNI33
I1
I0
tp319
bS'information technology consultant'
p320
tp321
Rp322
ag1
(g2
(S'S30'
p323
I0
I1
tp324
Rp325
(I3
S'|'
p326
NNNI30
I1
I0
tp327
bS'information technology manager'
p328
tp329
Rp330
ag1
(g2
(S'S15'
p331
I0
I1
tp332
Rp333
(I3
S'|'
p334
NNNI15
I1
I0
tp335
bS'legal assistant'
p336
tp337
Rp338
ag1
(g2
(S'S15'
p339
I0
I1
tp340
Rp341
(I3
S'|'
p342
NNNI15
I1
I0
tp343
bS'legal secretary'
p344
tp345
Rp346
ag1
(g2
(S'S21'
p347
I0
I1
tp348
Rp349
(I3
S'|'
p350
NNNI21
I1
I0
tp351
bS'management consultant'
p352
tp353
Rp354
ag1
(g2
(S'S17'
p355
I0
I1
tp356
Rp357
(I3
S'|'
p358
NNNI17
I1
I0
tp359
bS'managing director'
p360
tp361
Rp362
ag1
(g2
(S'S19'
p363
I0
I1
tp364
Rp365
(I3
S'|'
p366
NNNI19
I1
I0
tp367
bS'marketing assistant'
p368
tp369
Rp370
ag1
(g2
(S'S20'
p371
I0
I1
tp372
Rp373
(I3
S'|'
p374
NNNI20
I1
I0
tp375
bS'marketing consultant'
p376
tp377
Rp378
ag1
(g2
(S'S21'
p379
I0
I1
tp380
Rp381
(I3
S'|'
p382
NNNI21
I1
I0
tp383
bS'marketing coordinator'
p384
tp385
Rp386
ag1
(g2
(S'S18'
p387
I0
I1
tp388
Rp389
(I3
S'|'
p390
NNNI18
I1
I0
tp391
bS'marketing director'
p392
tp393
Rp394
ag1
(g2
(S'S17'
p395
I0
I1
tp396
Rp397
(I3
S'|'
p398
NNNI17
I1
I0
tp399
bS'marketing manager'
p400
tp401
Rp402
ag1
(g2
(S'S20'
p403
I0
I1
tp404
Rp405
(I3
S'|'
p406
NNNI20
I1
I0
tp407
bS'marketing specialist'
p408
tp409
Rp410
ag1
(g2
(S'S9'
p411
I0
I1
tp412
Rp413
(I3
S'|'
p414
NNNI9
I1
I0
tp415
bS'president'
p416
tp417
Rp418
ag1
(g2
(S'S15'
p419
I0
I1
tp420
Rp421
(I3
S'|'
p422
NNNI15
I1
I0
tp423
bS'product manager'
p424
tp425
Rp426
ag1
(g2
(S'S15'
p427
I0
I1
tp428
Rp429
(I3
S'|'
p430
NNNI15
I1
I0
tp431
bS'program manager'
p432
tp433
Rp434
ag1
(g2
(S'S15'
p435
I0
I1
tp436
Rp437
(I3
S'|'
p438
NNNI15
I1
I0
tp439
bS'project manager'
p440
tp441
Rp442
ag1
(g2
(S'S25'
p443
I0
I1
tp444
Rp445
(I3
S'|'
p446
NNNI25
I1
I0
tp447
bS'quality assurance analyst'
p448
tp449
Rp450
ag1
(g2
(S'S9'
p451
I0
I1
tp452
Rp453
(I3
S'|'
p454
NNNI9
I1
I0
tp455
bS'recruiter'
p456
tp457
Rp458
ag1
(g2
(S'S15'
p459
I0
I1
tp460
Rp461
(I3
S'|'
p462
NNNI15
I1
I0
tp463
bS'sales associate'
p464
tp465
Rp466
ag1
(g2
(S'S16'
p467
I0
I1
tp468
Rp469
(I3
S'|'
p470
NNNI16
I1
I0
tp471
bS'sales consultant'
p472
tp473
Rp474
ag1
(g2
(S'S13'
p475
I0
I1
tp476
Rp477
(I3
S'|'
p478
NNNI13
I1
I0
tp479
bS'sales manager'
p480
tp481
Rp482
ag1
(g2
(S'S20'
p483
I0
I1
tp484
Rp485
(I3
S'|'
p486
NNNI20
I1
I0
tp487
bS'sales representative'
p488
tp489
Rp490
ag1
(g2
(S'S24'
p491
I0
I1
tp492
Rp493
(I3
S'|'
p494
NNNI24
I1
I0
tp495
bS'senior account executive'
p496
tp497
Rp498
ag1
(g2
(S'S22'
p499
I0
I1
tp500
Rp501
(I3
S'|'
p502
NNNI22
I1
I0
tp503
bS'senior account manager'
p504
tp505
Rp506
ag1
(g2
(S'S17'
p507
I0
I1
tp508
Rp509
(I3
S'|'
p510
NNNI17
I1
I0
tp511
bS'senior accountant'
p512
tp513
Rp514
ag1
(g2
(S'S16'
p515
I0
I1
tp516
Rp517
(I3
S'|'
p518
NNNI16
I1
I0
tp519
bS'senior associate'
p520
tp521
Rp522
ag1
(g2
(S'S23'
p523
I0
I1
tp524
Rp525
(I3
S'|'
p526
NNNI23
I1
I0
tp527
bS'senior business analyst'
p528
tp529
Rp530
ag1
(g2
(S'S17'
p531
I0
I1
tp532
Rp533
(I3
S'|'
p534
NNNI17
I1
I0
tp535
bS'senior consultant'
p536
tp537
Rp538
ag1
(g2
(S'S15'
p539
I0
I1
tp540
Rp541
(I3
S'|'
p542
NNNI15
I1
I0
tp543
bS'senior director'
p544
tp545
Rp546
ag1
(g2
(S'S24'
p547
I0
I1
tp548
Rp549
(I3
S'|'
p550
NNNI24
I1
I0
tp551
bS'senior financial analyst'
p552
tp553
Rp554
ag1
(g2
(S'S22'
p555
I0
I1
tp556
Rp557
(I3
S'|'
p558
NNNI22
I1
I0
tp559
bS'senior program manager'
p560
tp561
Rp562
ag1
(g2
(S'S22'
p563
I0
I1
tp564
Rp565
(I3
S'|'
p566
NNNI22
I1
I0
tp567
bS'senior project manager'
p568
tp569
Rp570
ag1
(g2
(S'S24'
p571
I0
I1
tp572
Rp573
(I3
S'|'
p574
NNNI24
I1
I0
tp575
bS'senior software engineer'
p576
tp577
Rp578
ag1
(g2
(S'S21'
p579
I0
I1
tp580
Rp581
(I3
S'|'
p582
NNNI21
I1
I0
tp583
bS'senior vice president'
p584
tp585
Rp586
ag1
(g2
(S'S17'
p587
I0
I1
tp588
Rp589
(I3
S'|'
p590
NNNI17
I1
I0
tp591
bS'software engineer'
p592
tp593
Rp594
ag1
(g2
(S'S15'
p595
I0
I1
tp596
Rp597
(I3
S'|'
p598
NNNI15
I1
I0
tp599
bS'system engineer'
p600
tp601
Rp602
ag1
(g2
(S'S21'
p603
I0
I1
tp604
Rp605
(I3
S'|'
p606
NNNI21
I1
I0
tp607
bS'systems administrator'
p608
tp609
Rp610
ag1
(g2
(S'S15'
p611
I0
I1
tp612
Rp613
(I3
S'|'
p614
NNNI15
I1
I0
tp615
bS'systems analyst'
p616
tp617
Rp618
ag1
(g2
(S'S16'
p619
I0
I1
tp620
Rp621
(I3
S'|'
p622
NNNI16
I1
I0
tp623
bS'technical writer'
p624
tp625
Rp626
ag1
(g2
(S'S14'
p627
I0
I1
tp628
Rp629
(I3
S'|'
p630
NNNI14
I1
I0
tp631
bS'ui/ux designer'
p632
tp633
Rp634
ag1
(g2
(S'S15'
p635
I0
I1
tp636
Rp637
(I3
S'|'
p638
NNNI15
I1
I0
tp639
bS'ui/ux developer'
p640
tp641
Rp642
ag1
(g2
(S'S14'
p643
I0
I1
tp644
Rp645
(I3
S'|'
p646
NNNI14
I1
I0
tp647
bS'vice president'
p648
tp649
Rp650
ag1
(g2
(S'S12'
p651
I0
I1
tp652
Rp653
(I3
S'|'
p654
NNNI12
I1
I0
tp655
bS'web designer'
p656
tp657
Rp658
ag1
(g2
(S'S13'
p659
I0
I1
tp660
Rp661
(I3
S'|'
p662
NNNI13
I1
I0
tp663
bS'web developer'
p664
tp665
Rp666
a.