(lp0
S'account executive'
p1
aS'accountant'
p2
aS'accounting manager'
p3
aS'administrative assistant'
p4
aS'assistant manager'
p5
aS'assistant vice president'
p6
aS'business analyst'
p7
aS'business consultant'
p8
aS'business development director'
p9
aS'business development manager'
p10
aS'business manager'
p11
aS'chief executive officer'
p12
aS'chief financial officer'
p13
aS'chief information officer'
p14
aS'chief operating officer'
p15
aS'consultant'
p16
aS'customer service associate'
p17
aS'customer service manager'
p18
aS'customer service representative'
p19
aS'data analyst'
p20
aS'designer'
p21
aS'director'
p22
aS'executive assistant'
p23
aS'executive director'
p24
aS'financial analyst'
p25
aS'graphic designer'
p26
aS'human resources assistant'
p27
aS'human resources coordinator'
p28
aS'human resources director'
p29
aS'human resources manager'
p30
aS'information technology consultant'
p31
aS'information technology manager'
p32
aS'management consultant'
p33
aS'managing director'
p34
aS'marketing consultant'
p35
aS'marketing director'
p36
aS'marketing manager'
p37
aS'office assistant'
p38
aS'operations manager'
p39
aS'president'
p40
aS'product manager'
p41
aS'program manager'
p42
aS'project manager'
p43
aS'quality assurance analyst'
p44
aS'recruiter'
p45
aS'senior accountant'
p46
aS'senior business analyst'
p47
aS'senior consultant'
p48
aS'senior director'
p49
aS'senior financial analyst'
p50
aS'senior manager'
p51
aS'senior program manager'
p52
aS'senior project manager'
p53
aS'senior software engineer'
p54
aS'senior vice president'
p55
aS'software engineer'
p56
aS'staff accountant'
p57
aS'system engineer'
p58
aS'systems administrator'
p59
aS'systems analyst'
p60
aS'vice president'
p61
aS'web designer'
p62
aS'web developer'
p63
a.