(lp0
S''
p1
aS' accountant'
p2
aS' administrative assistant'
p3
aS' assistant manager'
p4
aS' business analyst'
p5
aS' chief executive officer'
p6
aS' chief information officer'
p7
aS' chief operating officer'
p8
aS' consultant'
p9
aS' customer service representative'
p10
aS' developer'
p11
aS' director'
p12
aS' executive director'
p13
aS' financial analyst'
p14
aS' general manager'
p15
aS' graphic designer'
p16
aS' human resources manager'
p17
aS' management consultant'
p18
aS' managing director'
p19
aS' marketing consultant'
p20
aS' marketing director'
p21
aS' marketing manager'
p22
aS' office assistant'
p23
aS' president'
p24
aS' program manager'
p25
aS' project manager'
p26
aS' sales associate'
p27
aS' sales consultant'
p28
aS' sales director'
p29
aS' sales manager'
p30
aS' sales representative'
p31
aS' senior business analyst'
p32
aS' senior consultant'
p33
aS' senior financial analyst'
p34
aS' senior program manager'
p35
aS' senior project manager'
p36
aS' senior software engineer'
p37
aS' senior vice president'
p38
aS' software engineer'
p39
aS' vice president'
p40
aS' web designer'
p41
aS' web developer'
p42
aS'accountant'
p43
aS'administrative assistant'
p44
aS'assistant manager'
p45
aS'business analyst'
p46
aS'chief executive officer'
p47
aS'chief information officer'
p48
aS'chief operating officer'
p49
aS'consultant'
p50
aS'customer service representative'
p51
aS'developer'
p52
aS'director'
p53
aS'executive director'
p54
aS'financial analyst'
p55
aS'general manager'
p56
aS'graphic designer'
p57
aS'human resources manager'
p58
aS'management consultant'
p59
aS'managing director'
p60
aS'marketing consultant'
p61
aS'marketing director'
p62
aS'marketing manager'
p63
aS'office assistant'
p64
aS'president'
p65
aS'product manager'
p66
aS'program manager'
p67
aS'project manager'
p68
aS'sales associate'
p69
aS'sales consultant'
p70
aS'sales director'
p71
aS'sales manager'
p72
aS'sales representative'
p73
aS'senior accountant'
p74
aS'senior business analyst'
p75
aS'senior consultant'
p76
aS'senior director'
p77
aS'senior financial analyst'
p78
aS'senior manager'
p79
aS'senior program manager'
p80
aS'senior project manager'
p81
aS'senior software engineer'
p82
aS'senior vice president'
p83
aS'software engineer'
p84
aS'vice president'
p85
aS'web designer'
p86
aS'web developer'
p87
a.